target datalayout = "e-m:e-p270:32:32-p271:32:32-p272:64:64-i64:64-i128:128-f80:128-n8:16:32:64-S128"
target triple = "x86_64-pc-linux-gnu"

%struct.expert_field = type { i32, i32 }
%struct.reassembly_table = type { ptr, ptr, ptr, ptr, ptr }
%struct._packet_info = type { ptr, ptr, i32, i32, %struct.nstime_t, %struct.nstime_t, %struct.nstime_t, i8, ptr, ptr, ptr, ptr, %struct._address, %struct._address, %struct._address, %struct._address, %struct._address, %struct._address, i32, ptr, i8, [3 x i8], %struct.anon, i32, i32, i32, i32, ptr, i8, ptr, ptr, i16, i16, i32, i32, i16, i32, i32, ptr, ptr, ptr, i8, i8, i16, i16, i16, i32, i16, i16, ptr, ptr, ptr, ptr, ptr, i32, i32 }
%struct.nstime_t = type { i64, i32 }
%struct._address = type { i32, i32, ptr, ptr }
%struct.anon = type { i8, [3 x i8] }

@ei_do_irp_frag_wo_tc = internal global %struct.expert_field zeroinitializer, align 4
@ett_do_irp = internal global i32 0, align 4
@proto_do_irp = internal global i32 0, align 4
@do_irp_reassemble_table = internal global %struct.reassembly_table zeroinitializer, align 8
@.str.372 = private unnamed_addr constant [20 x i8] c"Reassembled Message\00", align 1
@.str.373 = private unnamed_addr constant [13 x i8] c" (encrypted)\00", align 1
@.str.374 = private unnamed_addr constant [24 x i8] c" (Frag=%u, Reassembled)\00", align 1
@.str.375 = private unnamed_addr constant [11 x i8] c" (Frag=%u)\00", align 1

; Function Attrs: null_pointer_is_valid sspstrong uwtable
define internal zeroext i1 @test_do_irp(ptr noundef %0) #0 {
  %2 = alloca i1, align 1
  %3 = alloca ptr, align 8
  %4 = alloca i8, align 1
  %5 = alloca i32, align 4
  store ptr %0, ptr %3, align 8
  %6 = load ptr, ptr %3, align 8
  %7 = call i32 @tvb_captured_length(ptr noundef %6)
  %8 = icmp ult i32 %7, 20
  br i1 %8, label %9, label %10

9:                                                ; preds = %1
  store i1 false, ptr %2, align 1
  br label %28

10:                                               ; preds = %1
  call void @llvm.lifetime.start.p0(i64 1, ptr %4) #8
  %11 = load ptr, ptr %3, align 8
  %12 = call zeroext i8 @tvb_get_uint8(ptr noundef %11, i32 noundef 0)
  store i8 %12, ptr %4, align 1
  %13 = load i8, ptr %4, align 1
  %14 = zext i8 %13 to i32
  %15 = icmp slt i32 %14, 2
  br i1 %15, label %20, label %16

16:                                               ; preds = %10
  %17 = load i8, ptr %4, align 1
  %18 = zext i8 %17 to i32
  %19 = icmp sgt i32 %18, 3
  br i1 %19, label %20, label %21

20:                                               ; preds = %16, %10
  store i1 false, ptr %2, align 1
  store i32 1, ptr %5, align 4
  br label %27

21:                                               ; preds = %16
  %22 = load ptr, ptr %3, align 8
  %23 = call i32 @tvb_get_uint32(ptr noundef %22, i32 noundef 16, i32 noundef 0)
  %24 = icmp eq i32 %23, 0
  br i1 %24, label %25, label %26

25:                                               ; preds = %21
  store i1 false, ptr %2, align 1
  store i32 1, ptr %5, align 4
  br label %27

26:                                               ; preds = %21
  store i1 true, ptr %2, align 1
  store i32 1, ptr %5, align 4
  br label %27

27:                                               ; preds = %26, %25, %20
  call void @llvm.lifetime.end.p0(i64 1, ptr %4) #8
  br label %28

28:                                               ; preds = %27, %9
  %29 = load i1, ptr %2, align 1
  ret i1 %29
}

; Function Attrs: null_pointer_is_valid sspstrong uwtable
define internal i32 @dissect_do_irp_udp(ptr noundef %0, ptr noundef %1, ptr noundef %2, ptr noundef %3) #0 {
  %5 = alloca i32, align 4
  %6 = alloca ptr, align 8
  %7 = alloca ptr, align 8
  %8 = alloca ptr, align 8
  %9 = alloca ptr, align 8
  %10 = alloca ptr, align 8
  %11 = alloca ptr, align 8
  %12 = alloca i32, align 4
  %13 = alloca i8, align 1
  %14 = alloca ptr, align 8
  %15 = alloca i32, align 4
  %16 = alloca i32, align 4
  %17 = alloca i8, align 1
  %18 = alloca ptr, align 8
  %19 = alloca i8, align 1
  %20 = alloca i16, align 2
  %21 = alloca i16, align 2
  %22 = alloca i32, align 4
  store ptr %0, ptr %6, align 8
  store ptr %1, ptr %7, align 8
  store ptr %2, ptr %8, align 8
  store ptr %3, ptr %9, align 8
  %23 = load ptr, ptr %6, align 8
  %24 = call zeroext i1 @test_do_irp(ptr noundef %23)
  br i1 %24, label %26, label %25

25:                                               ; preds = %4
  store i32 0, ptr %5, align 4
  br label %184

26:                                               ; preds = %4
  call void @llvm.lifetime.start.p0(i64 8, ptr %10) #8
  %27 = load ptr, ptr %8, align 8
  %28 = load i32, ptr @proto_do_irp, align 4
  %29 = load ptr, ptr %6, align 8
  %30 = call ptr @proto_tree_add_item(ptr noundef %27, i32 noundef %28, ptr noundef %29, i32 noundef 0, i32 noundef -1, i32 noundef 0)
  store ptr %30, ptr %10, align 8
  call void @llvm.lifetime.start.p0(i64 8, ptr %11) #8
  %31 = load ptr, ptr %10, align 8
  %32 = load i32, ptr @ett_do_irp, align 4
  %33 = call ptr @proto_item_add_subtree(ptr noundef %31, i32 noundef %32)
  store ptr %33, ptr %11, align 8
  call void @llvm.lifetime.start.p0(i64 4, ptr %12) #8
  call void @llvm.lifetime.start.p0(i64 1, ptr %13) #8
  call void @llvm.lifetime.start.p0(i64 8, ptr %14) #8
  store ptr null, ptr %14, align 8
  call void @llvm.lifetime.start.p0(i64 4, ptr %15) #8
  store i32 0, ptr %15, align 4
  call void @llvm.lifetime.start.p0(i64 4, ptr %16) #8
  %34 = load ptr, ptr %6, align 8
  %35 = call i32 @tvb_get_uint32(ptr noundef %34, i32 noundef 16, i32 noundef 0)
  store i32 %35, ptr %16, align 4
  call void @llvm.lifetime.start.p0(i64 1, ptr %17) #8
  %36 = load ptr, ptr %6, align 8
  %37 = call zeroext i8 @tvb_get_uint8(ptr noundef %36, i32 noundef 2)
  store i8 %37, ptr %17, align 1
  %38 = load ptr, ptr %6, align 8
  %39 = load ptr, ptr %7, align 8
  %40 = load ptr, ptr %11, align 8
  %41 = call i32 @decode_envelope(ptr noundef %38, ptr noundef %39, ptr noundef %40, ptr noundef %12, ptr noundef %13)
  %42 = load i32, ptr %15, align 4
  %43 = add i32 %42, %41
  store i32 %43, ptr %15, align 4
  %44 = load i32, ptr %16, align 4
  %45 = icmp ugt i32 %44, 492
  br i1 %45, label %51, label %46

46:                                               ; preds = %26
  %47 = load i8, ptr %17, align 1
  %48 = zext i8 %47 to i32
  %49 = and i32 %48, 32
  %50 = icmp ne i32 %49, 0
  br i1 %50, label %51, label %157

51:                                               ; preds = %46, %26
  call void @llvm.lifetime.start.p0(i64 8, ptr %18) #8
  store ptr null, ptr %18, align 8
  call void @llvm.lifetime.start.p0(i64 1, ptr %19) #8
  store i8 0, ptr %19, align 1
  call void @llvm.lifetime.start.p0(i64 2, ptr %20) #8
  %52 = load ptr, ptr %6, align 8
  %53 = call i32 @tvb_get_uint32(ptr noundef %52, i32 noundef 8, i32 noundef 0)
  %54 = trunc i32 %53 to i16
  store i16 %54, ptr %20, align 2
  call void @llvm.lifetime.start.p0(i64 2, ptr %21) #8
  %55 = load ptr, ptr %6, align 8
  %56 = call i32 @tvb_get_uint32(ptr noundef %55, i32 noundef 12, i32 noundef 0)
  %57 = trunc i32 %56 to i16
  store i16 %57, ptr %21, align 2
  %58 = load i8, ptr %17, align 1
  %59 = zext i8 %58 to i32
  %60 = and i32 %59, 32
  %61 = icmp ne i32 %60, 0
  br i1 %61, label %66, label %62

62:                                               ; preds = %51
  %63 = load ptr, ptr %7, align 8
  %64 = load ptr, ptr %11, align 8
  %65 = call ptr @expert_add_info(ptr noundef %63, ptr noundef %64, ptr noundef @ei_do_irp_frag_wo_tc)
  br label %66

66:                                               ; preds = %62, %51
  %67 = load ptr, ptr %7, align 8
  %68 = load i16, ptr %20, align 2
  %69 = zext i16 %68 to i32
  %70 = call i32 @fragment_get_tot_len(ptr noundef @do_irp_reassemble_table, ptr noundef %67, i32 noundef %69, ptr noundef null)
  %71 = icmp eq i32 %70, 0
  br i1 %71, label %72, label %73

72:                                               ; preds = %66
  store i8 1, ptr %19, align 1
  br label %73

73:                                               ; preds = %72, %66
  %74 = load ptr, ptr %7, align 8
  %75 = getelementptr inbounds nuw %struct._packet_info, ptr %74, i32 0, i32 20
  store i8 1, ptr %75, align 8
  %76 = load ptr, ptr %6, align 8
  %77 = load i32, ptr %15, align 4
  %78 = load ptr, ptr %7, align 8
  %79 = load i16, ptr %20, align 2
  %80 = zext i16 %79 to i32
  %81 = load i16, ptr %21, align 2
  %82 = zext i16 %81 to i32
  %83 = load ptr, ptr %6, align 8
  %84 = load i32, ptr %15, align 4
  %85 = call i32 @tvb_captured_length_remaining(ptr noundef %83, i32 noundef %84)
  %86 = call ptr @fragment_add_seq_check(ptr noundef @do_irp_reassemble_table, ptr noundef %76, i32 noundef %77, ptr noundef %78, i32 noundef %80, ptr noundef null, i32 noundef %82, i32 noundef %85, i1 noundef zeroext true)
  store ptr %86, ptr %18, align 8
  %87 = load i8, ptr %19, align 1, !range !6, !noundef !7
  %88 = trunc i8 %87 to i1
  br i1 %88, label %89, label %104

89:                                               ; preds = %73
  call void @llvm.lifetime.start.p0(i64 4, ptr %22) #8
  %90 = load i32, ptr %16, align 4
  %91 = udiv i32 %90, 492
  store i32 %91, ptr %22, align 4
  %92 = load i32, ptr %16, align 4
  %93 = urem i32 %92, 492
  %94 = icmp ne i32 %93, 0
  br i1 %94, label %95, label %98

95:                                               ; preds = %89
  %96 = load i32, ptr %22, align 4
  %97 = add i32 %96, 1
  store i32 %97, ptr %22, align 4
  br label %98

98:                                               ; preds = %95, %89
  %99 = load ptr, ptr %7, align 8
  %100 = load i16, ptr %20, align 2
  %101 = zext i16 %100 to i32
  %102 = load i32, ptr %22, align 4
  %103 = sub i32 %102, 1
  call void @fragment_set_tot_len(ptr noundef @do_irp_reassemble_table, ptr noundef %99, i32 noundef %101, ptr noundef null, i32 noundef %103)
  call void @llvm.lifetime.end.p0(i64 4, ptr %22) #8
  br label %104

104:                                              ; preds = %98, %73
  %105 = load ptr, ptr %6, align 8
  %106 = load i32, ptr %15, align 4
  %107 = load ptr, ptr %7, align 8
  %108 = load ptr, ptr %18, align 8
  %109 = load ptr, ptr %11, align 8
  %110 = call ptr @process_reassembled_data(ptr noundef %105, i32 noundef %106, ptr noundef %107, ptr noundef @.str.372, ptr noundef %108, ptr noundef @msg_frag_items, ptr noundef null, ptr noundef %109)
  store ptr %110, ptr %14, align 8
  %111 = load ptr, ptr %14, align 8
  %112 = icmp ne ptr %111, null
  br i1 %112, label %113, label %141

113:                                              ; preds = %104
  %114 = load i8, ptr %13, align 1, !range !6, !noundef !7
  %115 = trunc i8 %114 to i1
  br i1 %115, label %124, label %116

116:                                              ; preds = %113
  %117 = load ptr, ptr %14, align 8
  %118 = load ptr, ptr %7, align 8
  %119 = load ptr, ptr %11, align 8
  %120 = load i32, ptr %12, align 4
  %121 = call i32 @decode_header_body_credential(ptr noundef %117, ptr noundef %118, ptr noundef %119, i32 noundef %120)
  %122 = load i32, ptr %15, align 4
  %123 = add i32 %122, %121
  store i32 %123, ptr %15, align 4
  br label %134

124:                                              ; preds = %113
  %125 = load ptr, ptr %7, align 8
  %126 = getelementptr inbounds nuw %struct._packet_info, ptr %125, i32 0, i32 1
  %127 = load ptr, ptr %126, align 8
  call void @col_append_str(ptr noundef %127, i32 noundef 25, ptr noundef @.str.373)
  %128 = load ptr, ptr %14, align 8
  %129 = load ptr, ptr %7, align 8
  %130 = load ptr, ptr %11, align 8
  %131 = call i32 @call_data_dissector(ptr noundef %128, ptr noundef %129, ptr noundef %130)
  %132 = load ptr, ptr %6, align 8
  %133 = call i32 @tvb_captured_length(ptr noundef %132)
  store i32 %133, ptr %15, align 4
  br label %134

134:                                              ; preds = %124, %116
  %135 = load ptr, ptr %7, align 8
  %136 = getelementptr inbounds nuw %struct._packet_info, ptr %135, i32 0, i32 1
  %137 = load ptr, ptr %136, align 8
  %138 = load i16, ptr %21, align 2
  %139 = zext i16 %138 to i32
  %140 = add i32 %139, 1
  call void (ptr, i32, ptr, ...) @col_append_fstr(ptr noundef %137, i32 noundef 25, ptr noundef @.str.374, i32 noundef %140)
  br label %156

141:                                              ; preds = %104
  %142 = load ptr, ptr %6, align 8
  %143 = load i32, ptr %15, align 4
  %144 = call ptr @tvb_new_subset_remaining(ptr noundef %142, i32 noundef %143)
  %145 = load ptr, ptr %7, align 8
  %146 = load ptr, ptr %11, align 8
  %147 = call i32 @call_data_dissector(ptr noundef %144, ptr noundef %145, ptr noundef %146)
  %148 = load ptr, ptr %7, align 8
  %149 = getelementptr inbounds nuw %struct._packet_info, ptr %148, i32 0, i32 1
  %150 = load ptr, ptr %149, align 8
  %151 = load i16, ptr %21, align 2
  %152 = zext i16 %151 to i32
  %153 = add i32 %152, 1
  call void (ptr, i32, ptr, ...) @col_append_fstr(ptr noundef %150, i32 noundef 25, ptr noundef @.str.375, i32 noundef %153)
  %154 = load ptr, ptr %6, align 8
  %155 = call i32 @tvb_captured_length(ptr noundef %154)
  store i32 %155, ptr %15, align 4
  br label %156

156:                                              ; preds = %141, %134
  call void @llvm.lifetime.end.p0(i64 2, ptr %21) #8
  call void @llvm.lifetime.end.p0(i64 2, ptr %20) #8
  call void @llvm.lifetime.end.p0(i64 1, ptr %19) #8
  call void @llvm.lifetime.end.p0(i64 8, ptr %18) #8
  br label %182

157:                                              ; preds = %46
  %158 = load ptr, ptr %6, align 8
  %159 = load i32, ptr %15, align 4
  %160 = call ptr @tvb_new_subset_remaining(ptr noundef %158, i32 noundef %159)
  store ptr %160, ptr %14, align 8
  %161 = load i8, ptr %13, align 1, !range !6, !noundef !7
  %162 = trunc i8 %161 to i1
  br i1 %162, label %171, label %163

163:                                              ; preds = %157
  %164 = load ptr, ptr %14, align 8
  %165 = load ptr, ptr %7, align 8
  %166 = load ptr, ptr %11, align 8
  %167 = load i32, ptr %12, align 4
  %168 = call i32 @decode_header_body_credential(ptr noundef %164, ptr noundef %165, ptr noundef %166, i32 noundef %167)
  %169 = load i32, ptr %15, align 4
  %170 = add i32 %169, %168
  store i32 %170, ptr %15, align 4
  br label %181

171:                                              ; preds = %157
  %172 = load ptr, ptr %7, align 8
  %173 = getelementptr inbounds nuw %struct._packet_info, ptr %172, i32 0, i32 1
  %174 = load ptr, ptr %173, align 8
  call void @col_append_str(ptr noundef %174, i32 noundef 25, ptr noundef @.str.373)
  %175 = load ptr, ptr %14, align 8
  %176 = load ptr, ptr %7, align 8
  %177 = load ptr, ptr %11, align 8
  %178 = call i32 @call_data_dissector(ptr noundef %175, ptr noundef %176, ptr noundef %177)
  %179 = load ptr, ptr %6, align 8
  %180 = call i32 @tvb_captured_length(ptr noundef %179)
  store i32 %180, ptr %15, align 4
  br label %181

181:                                              ; preds = %171, %163
  br label %182

182:                                              ; preds = %181, %156
  %183 = load i32, ptr %15, align 4
  store i32 %183, ptr %5, align 4
  call void @llvm.lifetime.end.p0(i64 1, ptr %17) #8
  call void @llvm.lifetime.end.p0(i64 4, ptr %16) #8
  call void @llvm.lifetime.end.p0(i64 4, ptr %15) #8
  call void @llvm.lifetime.end.p0(i64 8, ptr %14) #8
  call void @llvm.lifetime.end.p0(i64 1, ptr %13) #8
  call void @llvm.lifetime.end.p0(i64 4, ptr %12) #8
  call void @llvm.lifetime.end.p0(i64 8, ptr %11) #8
  call void @llvm.lifetime.end.p0(i64 8, ptr %10) #8
  br label %184

184:                                              ; preds = %182, %25
  %185 = load i32, ptr %5, align 4
  ret i32 %185
}