; Function Attrs: null_pointer_is_valid sspstrong uwtable
define internal i32 @dissect_do_irp_udp(ptr noundef %0, ptr noundef %1, ptr noundef %2, ptr readnone captures(none) %3) #0 {
  %5 = alloca i32, align 4
  %6 = alloca i8, align 1
  %7 = tail call i32 @tvb_captured_length(ptr noundef %0)
  %8 = icmp ult i32 %7, 20
  br i1 %8, label %test_do_irp.exit.thread, label %9

9:                                                ; preds = %4
  %10 = tail call zeroext i8 @tvb_get_uint8(ptr noundef %0, i32 noundef 0)
  %11 = and i8 %10, -2
  %or.cond.not.i = icmp eq i8 %11, 2
  br i1 %or.cond.not.i, label %test_do_irp.exit, label %test_do_irp.exit.thread

test_do_irp.exit:                                 ; preds = %9
  %12 = tail call i32 @tvb_get_uint32(ptr noundef %0, i32 noundef 16, i32 noundef 0)
  %.not78 = icmp eq i32 %12, 0
  br i1 %.not78, label %test_do_irp.exit.thread, label %13

13:                                               ; preds = %test_do_irp.exit
  %14 = load i32, ptr @proto_do_irp, align 4
  %15 = tail call ptr @proto_tree_add_item(ptr noundef %2, i32 noundef %14, ptr noundef %0, i32 noundef 0, i32 noundef -1, i32 noundef 0)
  %16 = load i32, ptr @ett_do_irp, align 4
  %17 = tail call ptr @proto_item_add_subtree(ptr noundef %15, i32 noundef %16)
  call void @llvm.lifetime.start.p0(i64 4, ptr nonnull %5) #6
  call void @llvm.lifetime.start.p0(i64 1, ptr nonnull %6) #6
  %18 = tail call i32 @tvb_get_uint32(ptr noundef %0, i32 noundef 16, i32 noundef 0)
  %19 = tail call zeroext i8 @tvb_get_uint8(ptr noundef %0, i32 noundef 2)
  call fastcc void @decode_envelope(ptr noundef %0, ptr noundef %1, ptr noundef %17, ptr noundef nonnull %5, ptr noundef nonnull %6)
  %20 = icmp ult i32 %18, 493
  %21 = and i8 %19, 32
  %.not = icmp eq i8 %21, 0
  %or.cond = select i1 %20, i1 %.not, i1 false
  br i1 %or.cond, label %65, label %22

22:                                               ; preds = %13
  %23 = tail call i32 @tvb_get_uint32(ptr noundef %0, i32 noundef 8, i32 noundef 0)
  %24 = tail call i32 @tvb_get_uint32(ptr noundef %0, i32 noundef 12, i32 noundef 0)
  br i1 %.not, label %25, label %27

25:                                               ; preds = %22
  %26 = tail call ptr @expert_add_info(ptr noundef %1, ptr noundef %17, ptr noundef nonnull @ei_do_irp_frag_wo_tc)
  br label %27

27:                                               ; preds = %25, %22
  %28 = and i32 %23, 65535
  %29 = tail call i32 @fragment_get_tot_len(ptr noundef nonnull @do_irp_reassemble_table, ptr noundef %1, i32 noundef %28, ptr noundef null)
  %30 = icmp eq i32 %29, 0
  %31 = getelementptr inbounds nuw i8, ptr %1, i64 272
  store i8 1, ptr %31, align 8
  %32 = and i32 %24, 65535
  %33 = tail call i32 @tvb_captured_length_remaining(ptr noundef %0, i32 noundef 20)
  %34 = tail call ptr @fragment_add_seq_check(ptr noundef nonnull @do_irp_reassemble_table, ptr noundef %0, i32 noundef 20, ptr noundef %1, i32 noundef %28, ptr noundef null, i32 noundef %32, i32 noundef %33, i1 noundef zeroext true)
  br i1 %30, label %35, label %40

35:                                               ; preds = %27
  %36 = udiv i32 %18, 492
  %37 = urem i32 %18, 492
  %.not75 = icmp ne i32 %37, 0
  %38 = zext i1 %.not75 to i32
  %spec.select = add nsw i32 %36, -1
  %39 = add nsw i32 %spec.select, %38
  tail call void @fragment_set_tot_len(ptr noundef nonnull @do_irp_reassemble_table, ptr noundef %1, i32 noundef %28, ptr noundef null, i32 noundef %39)
  br label %40

40:                                               ; preds = %35, %27
  %41 = tail call ptr @process_reassembled_data(ptr noundef %0, i32 noundef 20, ptr noundef %1, ptr noundef nonnull @.str.372, ptr noundef %34, ptr noundef nonnull @msg_frag_items, ptr noundef null, ptr noundef %17)
  %.not76 = icmp eq ptr %41, null
  br i1 %.not76, label %58, label %42

42:                                               ; preds = %40
  %43 = load i8, ptr %6, align 1, !range !6, !noundef !7
  %44 = trunc nuw i8 %43 to i1
  br i1 %44, label %49, label %45

45:                                               ; preds = %42
  %46 = load i32, ptr %5, align 4
  %47 = tail call fastcc i32 @decode_header_body_credential(ptr noundef nonnull %41, ptr noundef %1, ptr noundef %17, i32 noundef %46)
  %48 = add i32 %47, 20
  br label %54

49:                                               ; preds = %42
  %50 = getelementptr inbounds nuw i8, ptr %1, i64 8
  %51 = load ptr, ptr %50, align 8
  tail call void @col_append_str(ptr noundef %51, i32 noundef 25, ptr noundef nonnull @.str.373)
  %52 = tail call i32 @call_data_dissector(ptr noundef nonnull %41, ptr noundef %1, ptr noundef %17)
  %53 = tail call i32 @tvb_captured_length(ptr noundef %0)
  br label %54

54:                                               ; preds = %49, %45
  %.072 = phi i32 [ %53, %49 ], [ %48, %45 ]
  %55 = getelementptr inbounds nuw i8, ptr %1, i64 8
  %56 = load ptr, ptr %55, align 8
  %57 = add nuw nsw i32 %32, 1
  tail call void (ptr, i32, ptr, ...) @col_append_fstr(ptr noundef %56, i32 noundef 25, ptr noundef nonnull @.str.374, i32 noundef %57)
  br label %78

58:                                               ; preds = %40
  %59 = tail call ptr @tvb_new_subset_remaining(ptr noundef %0, i32 noundef 20)
  %60 = tail call i32 @call_data_dissector(ptr noundef %59, ptr noundef %1, ptr noundef %17)
  %61 = getelementptr inbounds nuw i8, ptr %1, i64 8
  %62 = load ptr, ptr %61, align 8
  %63 = add nuw nsw i32 %32, 1
  tail call void (ptr, i32, ptr, ...) @col_append_fstr(ptr noundef %62, i32 noundef 25, ptr noundef nonnull @.str.375, i32 noundef %63)
  %64 = tail call i32 @tvb_captured_length(ptr noundef %0)
  br label %78

65:                                               ; preds = %13
  %66 = tail call ptr @tvb_new_subset_remaining(ptr noundef %0, i32 noundef 20)
  %67 = load i8, ptr %6, align 1, !range !6, !noundef !7
  %68 = trunc nuw i8 %67 to i1
  br i1 %68, label %73, label %69

69:                                               ; preds = %65
  %70 = load i32, ptr %5, align 4
  %71 = tail call fastcc i32 @decode_header_body_credential(ptr noundef %66, ptr noundef %1, ptr noundef %17, i32 noundef %70)
  %72 = add i32 %71, 20
  br label %78

73:                                               ; preds = %65
  %74 = getelementptr inbounds nuw i8, ptr %1, i64 8
  %75 = load ptr, ptr %74, align 8
  tail call void @col_append_str(ptr noundef %75, i32 noundef 25, ptr noundef nonnull @.str.373)
  %76 = tail call i32 @call_data_dissector(ptr noundef %66, ptr noundef %1, ptr noundef %17)
  %77 = tail call i32 @tvb_captured_length(ptr noundef %0)
  br label %78

78:                                               ; preds = %54, %58, %69, %73
  %.2 = phi i32 [ %77, %73 ], [ %72, %69 ], [ %.072, %54 ], [ %64, %58 ]
  call void @llvm.lifetime.end.p0(i64 1, ptr nonnull %6) #6
  call void @llvm.lifetime.end.p0(i64 4, ptr nonnull %5) #6
  br label %test_do_irp.exit.thread

test_do_irp.exit.thread:                          ; preds = %9, %4, %test_do_irp.exit, %78
  %.070 = phi i32 [ %.2, %78 ], [ 0, %test_do_irp.exit ], [ 0, %4 ], [ 0, %9 ]
  ret i32 %.070
}